target datalayout = "e-m:e-p270:32:32-p271:32:32-p272:64:64-i64:64-i128:128-f80:128-n8:16:32:64-S128"
target triple = "x86_64-pc-linux-gnu"

%struct.reassembly_table = type { ptr, ptr, ptr, ptr, ptr }
%struct.reassembly_table_functions = type { ptr, ptr, ptr, ptr, ptr, ptr }

@.str.1577 = private unnamed_addr constant [6 x i8] c"Nfapi\00", align 1
@.str.1578 = private unnamed_addr constant [6 x i8] c"NFAPI\00", align 1
@.str.1579 = private unnamed_addr constant [6 x i8] c"nfapi\00", align 1
@proto_nfapi = internal global i32 0, align 4
@.str.1580 = private unnamed_addr constant [13 x i8] c"nfapi.msg_id\00", align 1
@.str.1581 = private unnamed_addr constant [17 x i8] c"NFAPI Message ID\00", align 1
@message_table = internal global ptr null, align 8
@ul_p7_reassemble_table = internal global %struct.reassembly_table zeroinitializer, align 8
@addresses_ports_reassembly_table_functions = external constant %struct.reassembly_table_functions, align 8
@dl_p7_reassemble_table = internal global %struct.reassembly_table zeroinitializer, align 8
@nfapi_handle = internal global ptr null, align 8

; Function Attrs: nounwind uwtable
define hidden void @proto_register_nfapi() #0 {
  %1 = alloca ptr, align 8
  %2 = call i32 @proto_register_protocol(ptr noundef @.str.1577, ptr noundef @.str.1578, ptr noundef @.str.1579)
  store i32 %2, ptr @proto_nfapi, align 4
  %3 = load i32, ptr @proto_nfapi, align 4
  %4 = call ptr @expert_register_protocol(i32 noundef %3)
  store ptr %4, ptr %1, align 8
  %5 = load ptr, ptr %1, align 8
  call void @expert_register_field_array(ptr noundef %5, ptr noundef @proto_register_nfapi.ei, i32 noundef 2)
  %6 = load i32, ptr @proto_nfapi, align 4
  call void @proto_register_field_array(i32 noundef %6, ptr noundef @proto_register_nfapi.hf, i32 noundef 576)
  call void @proto_register_subtree_array(ptr noundef @proto_register_nfapi.ett, i32 noundef 56)
  %7 = load i32, ptr @proto_nfapi, align 4
  %8 = call ptr @register_dissector_table(ptr noundef @.str.1580, ptr noundef @.str.1581, i32 noundef %7, i32 noundef 5, i32 noundef 1)
  store ptr %8, ptr @message_table, align 8
  call void @reassembly_table_register(ptr noundef @ul_p7_reassemble_table, ptr noundef @addresses_ports_reassembly_table_functions)
  call void @reassembly_table_register(ptr noundef @dl_p7_reassemble_table, ptr noundef @addresses_ports_reassembly_table_functions)
  %9 = load i32, ptr @proto_nfapi, align 4
  %10 = call ptr @register_dissector(ptr noundef @.str.1579, ptr noundef @dissect_nfapi, i32 noundef %9)
  store ptr %10, ptr @nfapi_handle, align 8
  ret void
}