; Function Attrs: nounwind uwtable
define hidden void @proto_register_nfapi() local_unnamed_addr #0 {
  %1 = tail call i32 @proto_register_protocol(ptr noundef nonnull @.str.1577, ptr noundef nonnull @.str.1578, ptr noundef nonnull @.str.1579) #7
  store i32 %1, ptr @proto_nfapi, align 4
  %2 = tail call ptr @expert_register_protocol(i32 noundef %1) #7
  tail call void @expert_register_field_array(ptr noundef %2, ptr noundef nonnull @proto_register_nfapi.ei, i32 noundef 2) #7
  %3 = load i32, ptr @proto_nfapi, align 4
  tail call void @proto_register_field_array(i32 noundef %3, ptr noundef nonnull @proto_register_nfapi.hf, i32 noundef 576) #7
  tail call void @proto_register_subtree_array(ptr noundef nonnull @proto_register_nfapi.ett, i32 noundef 56) #7
  %4 = load i32, ptr @proto_nfapi, align 4
  %5 = tail call ptr @register_dissector_table(ptr noundef nonnull @.str.1580, ptr noundef nonnull @.str.1581, i32 noundef %4, i32 noundef 5, i32 noundef 1) #7
  store ptr %5, ptr @message_table, align 8
  tail call void @reassembly_table_register(ptr noundef nonnull @ul_p7_reassemble_table, ptr noundef nonnull @addresses_ports_reassembly_table_functions) #7
  tail call void @reassembly_table_register(ptr noundef nonnull @dl_p7_reassemble_table, ptr noundef nonnull @addresses_ports_reassembly_table_functions) #7
  %6 = load i32, ptr @proto_nfapi, align 4
  %7 = tail call ptr @register_dissector(ptr noundef nonnull @.str.1579, ptr noundef nonnull @dissect_nfapi, i32 noundef %6) #7
  store ptr %7, ptr @nfapi_handle, align 8
  ret void
}